(lp0
(dp1
a(dp2
S'nbsp'
p3
I1
sa(dp4
S'nbsp'
p5
I1
sa(dp6
a(dp7
a(dp8
a(dp9
a(dp10
a(dp11
S'ramzy'
p12
I1
sS'austin'
p13
I1
sa(dp14
S'nbsp'
p15
I6
sa(dp16
a(dp17
S'nbsp'
p18
I1
sa(dp19
S'nbsp'
p20
I1
sa(dp21
S'3000'
p22
I1
sS'nbsp'
p23
I1
sa(dp24
S'nbsp'
p25
I1
sa(dp26
S'apec'
p27
I4
sS'nbsp'
p28
I1
sa(dp29
a(dp30
S'arnav'
p31
I1
sa(dp32
a(dp33
a(dp34
S'nbsp'
p35
I1
sa(dp36
S'nbsp'
p37
I1
sa(dp38
a(dp39
a(dp40
a(dp41
S'nbsp'
p42
I4
sa(dp43
S'charite'
p44
I1
sa(dp45
a(dp46
a(dp47
S'nbsp'
p48
I1
sa(dp49
S'4459'
p50
I1
sS'1845'
p51
I1
sS'2013'
p52
I1
sa(dp53
a(dp54
a(dp55
a(dp56
S'2015'
p57
I1
sa(dp58
a(dp59
a(dp60
a(dp61
a(dp62
a(dp63
a(dp64
a(dp65
a(dp66
S'2015'
p67
I1
sa(dp68
S'2015'
p69
I1
sa(dp70
a(dp71
S'2015'
p72
I2
sa(dp73
a(dp74
a(dp75
a(dp76
S'2015'
p77
I1
sS'2013'
p78
I1
sa(dp79
a(dp80
S'2015'
p81
I1
sS'2035'
p82
I1
sa(dp83
a(dp84
S'2015'
p85
I1
sa(dp86
S'1000'
p87
I1
sa(dp88
S'2015'
p89
I1
sS'1450'
p90
I1
sa(dp91
a(dp92
S'2015'
p93
I1
sa(dp94
a(dp95
S'2009'
p96
I1
sS'1800'
p97
I1
sa(dp98
a(dp99
a(dp100
a(dp101
a(dp102
a(dp103
a(dp104
a(dp105
S'2009'
p106
I1
sS'2012'
p107
I1
sa(dp108
a(dp109
a(dp110
a(dp111
S'2015'
p112
I1
sS'great'
p113
I1
sa(dp114
a(dp115
S'ngcp'
p116
I2
sa(dp117
a(dp118
a(dp119
a(dp120
a(dp121
a(dp122
S'abdurasul'
p123
I1
sS'jaraboev'
p124
I1
sS'akhr'
p125
I1
sa(dp126
a(dp127
a(dp128
a(dp129
S'james'
p130
I1
sS'bond'
p131
I1
sa(dp132
S'2015'
p133
I1
sa(dp134
a(dp135
S'abdulaziz'
p136
I2
sS'salman'
p137
I2
sS'saud'
p138
I2
sa(dp139
a(dp140
a(dp141
S'hellip'
p142
I1
sa(dp143
a(dp144
a(dp145
a(dp146
S'2200'
p147
I1
sa(dp148
a(dp149
a(dp150
a(dp151
S'd52165'
p152
I1
sa(dp153
S'2015'
p154
I1
sS'2014'
p155
I1
sa(dp156
a(dp157
S'lsquo'
p158
I1
sS'rsquo'
p159
I1
sa(dp160
a(dp161
a(dp162
S'hellip'
p163
I2
sa(dp164
S'2012'
p165
I1
sa(dp166
S'nbsp'
p167
I1
sa(dp168
a(dp169
a(dp170
a(dp171
a(dp172
a(dp173
a(dp174
a(dp175
a(dp176
a(dp177
S'5000'
p178
I1
sa(dp179
a(dp180
S'2014'
p181
I1
sa(dp182
a(dp183
a(dp184
S'1600'
p185
I1
sS'2013'
p186
I1
sa(dp187
a(dp188
S'1941'
p189
I1
sa(dp190
a(dp191
a(dp192
a(dp193
a(dp194
a(dp195
a(dp196
S'c016'
p197
I1
sS'casa'
p198
I1
sS'flightglobal'
p199
I1
sa(dp200
S's500'
p201
I1
sS'20380'
p202
I1
sa(dp203
S'2002'
p204
I1
sa(dp205
S'isis'
p206
I1
sa(dp207
a(dp208
S'1919'
p209
I1
sa(dp210
a(dp211
S'1943'
p212
I1
sa(dp213
a(dp214
a(dp215
a(dp216
a(dp217
a(dp218
S'1949'
p219
I1
sS'1951'
p220
I1
sa(dp221
S'1939'
p222
I1
sa(dp223
a(dp224
a(dp225
S'1956'
p226
I1
sS'1947'
p227
I1
sa(dp228
S'1947'
p229
I1
sa(dp230
S'1949'
p231
I1
sa(dp232
a(dp233
a(dp234
S'2014'
p235
I1
sa(dp236
S'2014'
p237
I1
sa(dp238
S'2014'
p239
I1
sa(dp240
S'1000'
p241
I1
sa(dp242
a(dp243
S'2014'
p244
I1
sS'2006'
p245
I1
sS'2018'
p246
I1
sS'2022'
p247
I1
sa(dp248
S'logo'
p249
I3
sS'2018'
p250
I2
sa(dp251
a(dp252
S'fifa'
p253
I2
sS'270450749'
p254
I1
sS'http'
p255
I1
sS'_pid'
p256
I1
sS'1451558'
p257
I1
sS'sohu'
p258
I1
sS'_url'
p259
I1
sS'_vid'
p260
I1
sS'2013121'
p261
I1
sS'_title'
p262
I1
sa(dp263
a(dp264
S'270450749'
p265
I1
sS'http'
p266
I1
sS'n4052'
p267
I1
sS'_pid'
p268
I1
sS'sohu'
p269
I1
sS'20141018'
p270
I1
sS'_url'
p271
I1
sS'2040590'
p272
I1
sS'_vid'
p273
I1
sS'_title'
p274
I1
sa(dp275
a(dp276
a(dp277
S'2014'
p278
I1
sa(dp279
a(dp280
S'xperia'
p281
I1
sa(dp282
S'fifa'
p283
I2
sa(dp284
S'2012'
p285
I1
sa(dp286
a(dp287
a(dp288
a(dp289
S'2016'
p290
I2
sa(dp291
a(dp292
a(dp293
S'7500'
p294
I1
sS'8000'
p295
I1
sa(dp296
a(dp297
a(dp298
S'2014'
p299
I1
sS'nbsp'
p300
I1
sa(dp301
S'2015'
p302
I1
sS'lsquo'
p303
I1
sS'mooc'
p304
I4
sS'rsquo'
p305
I1
sa(dp306
a(dp307
a(dp308
a(dp309
a(dp310
a(dp311
a(dp312
a(dp313
S'2015'
p314
I1
sa(dp315
S'wuba'
p316
I1
sS'nyse'
p317
I1
sa(dp318
a(dp319
S'link'
p320
I1
sS'3000'
p321
I1
sa(dp322
S'2015'
p323
I1
sS'2016'
p324
I3
sa(dp325
S'warketwatch'
p326
I1
sS'android'
p327
I4
sS'fireeye'
p328
I1
sS'yahoo'
p329
I1
sa(dp330
S'jawbone'
p331
I4
sa(dp332
S'svx2000'
p333
I1
sS'2600'
p334
I1
sS'atari'
p335
I1
sa(dp336
S'techweb'
p337
I1
sa(dp338
S'maoqiying2008'
p339
I1
sS'wlan'
p340
I1
sa(dp341
S'uber'
p342
I4
sS'techweb'
p343
I1
sa(dp344
a(dp345
S'nutshell'
p346
I1
sS'vimo'
p347
I1
sa(dp348
S'galax'
p349
I1
sS'galaxy'
p350
I1
sa(dp351
S'2014'
p352
I3
sS'4054'
p353
I1
sS'14129'
p354
I2
sS'13866'
p355
I1
sa(dp356
a(dp357
S'2014'
p358
I1
sS'crunchbase'
p359
I1
sS'insights'
p360
I1
sa(dp361
S'jguojguo'
p362
I1
sS'bajaboard'
p363
I2
sa(dp364
S'jguojguo'
p365
I1
sS'kickstarter'
p366
I1
sS'duang'
p367
I1
sS'pebble'
p368
I3
sS'time'
p369
I2
sa(dp370
S'2014'
p371
I1
sa(dp372
a(dp373
a(dp374
S'nbsp'
p375
I2
sa(dp376
S'duang'
p377
I1
sS'nbsp'
p378
I1
sa(dp379
a(dp380
S'kimi'
p381
I6
sS'nbsp'
p382
I1
sa(dp383
S'nbsp'
p384
I2
sa(dp385
a(dp386
S'2014'
p387
I1
sS'vicky'
p388
I1
sS'nbsp'
p389
I1
sa(dp390
S'offer'
p391
I1
sa(dp392
a(dp393
S'todt'
p394
I1
sS'roberto'
p395
I1
sS'cavalli'
p396
I1
sS'nbsp'
p397
I1
sS'2015'
p398
I1
sS'jean'
p399
I2
sa(dp400
S'nbsp'
p401
I2
sa(dp402
S'nbsp'
p403
I1
sS'jolin'
p404
I1
sa(dp405
S'akb48'
p406
I1
sa(dp407
S'2000'
p408
I1
sS'nbsp'
p409
I1
sa(dp410
S'nbsp'
p411
I2
sa(dp412
S'nbsp'
p413
I1
sa(dp414
S'nbsp'
p415
I1
sa(dp416
S'nbsp'
p417
I1
sa(dp418
S'nbsp'
p419
I1
sa(dp420
S'nbsp'
p421
I1
sa(dp422
a(dp423
a(dp424
S'nbsp'
p425
I1
sa(dp426
S'nbsp'
p427
I1
sa(dp428
S'nbsp'
p429
I1
sa(dp430
S'baby'
p431
I5
sS'nbsp'
p432
I2
sa(dp433
S'nbsp'
p434
I2
sa(dp435
S'2015'
p436
I1
sS'64094'
p437
I2
sS'nbsp'
p438
I1
sa(dp439
S'nbsp'
p440
I2
sa(dp441
S'nbsp'
p442
I1
sa.